target datalayout = "e-m:e-p270:32:32-p271:32:32-p272:64:64-i64:64-i128:128-f80:128-n8:16:32:64-S128"
target triple = "x86_64-pc-linux-gnu"

%struct.ExplainState = type { ptr, i8, i8, i8, i8, i8, i8, i8, i8, i8, i8, i32, i32, i32, ptr, ptr, ptr, ptr, ptr, ptr, i8, i32, ptr }

@explain_get_index_name_hook = dso_local global ptr null, align 8
@.str.16 = private unnamed_addr constant [10 x i8] c"explain.c\00", align 1
@.str.105 = private unnamed_addr constant [4 x i8] c"???\00", align 1
@.str.178 = private unnamed_addr constant [11 x i8] c"Index Name\00", align 1
@.str.248 = private unnamed_addr constant [10 x i8] c" Backward\00", align 1
@.str.249 = private unnamed_addr constant [10 x i8] c" using %s\00", align 1
@.str.250 = private unnamed_addr constant [9 x i8] c"Backward\00", align 1
@.str.251 = private unnamed_addr constant [8 x i8] c"Forward\00", align 1
@.str.252 = private unnamed_addr constant [15 x i8] c"Scan Direction\00", align 1
@.str.253 = private unnamed_addr constant [33 x i8] c"cache lookup failed for index %u\00", align 1
@__func__.explain_get_index_name = private unnamed_addr constant [23 x i8] c"explain_get_index_name\00", align 1

; Function Attrs: nounwind uwtable
define dso_local void @ExplainPropertyText(ptr noundef %0, ptr noundef %1, ptr noundef %2) #0 {
  %4 = alloca ptr, align 8
  %5 = alloca ptr, align 8
  %6 = alloca ptr, align 8
  store ptr %0, ptr %4, align 8
  store ptr %1, ptr %5, align 8
  store ptr %2, ptr %6, align 8
  %7 = load ptr, ptr %4, align 8
  %8 = load ptr, ptr %5, align 8
  %9 = load ptr, ptr %6, align 8
  call void @ExplainProperty(ptr noundef %7, ptr noundef null, ptr noundef %8, i1 noundef zeroext false, ptr noundef %9)
  ret void
}

; Function Attrs: nounwind uwtable
define internal ptr @explain_get_index_name(i32 noundef %0) #0 {
  %2 = alloca i32, align 4
  %3 = alloca ptr, align 8
  store i32 %0, ptr %2, align 4
  call void @llvm.lifetime.start.p0(i64 8, ptr %3) #10
  %4 = load ptr, ptr @explain_get_index_name_hook, align 8
  %5 = icmp ne ptr %4, null
  br i1 %5, label %6, label %10

6:                                                ; preds = %1
  %7 = load ptr, ptr @explain_get_index_name_hook, align 8
  %8 = load i32, ptr %2, align 4
  %9 = call ptr %7(i32 noundef %8)
  store ptr %9, ptr %3, align 8
  br label %11

10:                                               ; preds = %1
  store ptr null, ptr %3, align 8
  br label %11

11:                                               ; preds = %10, %6
  %12 = load ptr, ptr %3, align 8
  %13 = icmp eq ptr %12, null
  br i1 %13, label %14, label %32

14:                                               ; preds = %11
  %15 = load i32, ptr %2, align 4
  %16 = call ptr @get_rel_name(i32 noundef %15)
  store ptr %16, ptr %3, align 8
  %17 = load ptr, ptr %3, align 8
  %18 = icmp eq ptr %17, null
  br i1 %18, label %19, label %31

19:                                               ; preds = %14
  br label %20

20:                                               ; preds = %19
  br i1 true, label %21, label %23

21:                                               ; preds = %20
  %22 = call zeroext i1 @errstart_cold(i32 noundef 21, ptr noundef null) #12
  br i1 %22, label %25, label %28

23:                                               ; preds = %20
  %24 = call zeroext i1 @errstart(i32 noundef 21, ptr noundef null)
  br i1 %24, label %25, label %28

25:                                               ; preds = %23, %21
  %26 = load i32, ptr %2, align 4
  %27 = call i32 (ptr, ...) @errmsg_internal(ptr noundef @.str.253, i32 noundef %26)
  call void @errfinish(ptr noundef @.str.16, i32 noundef 4019, ptr noundef @__func__.explain_get_index_name)
  br label %28

28:                                               ; preds = %25, %23, %21
  unreachable

29:                                               ; No predecessors!
  br label %30

30:                                               ; preds = %29
  br label %31

31:                                               ; preds = %30, %14
  br label %32

32:                                               ; preds = %31, %11
  %33 = load ptr, ptr %3, align 8
  call void @llvm.lifetime.end.p0(i64 8, ptr %3) #10
  ret ptr %33
}

; Function Attrs: nounwind uwtable
define internal void @ExplainIndexScanDetails(i32 noundef %0, i32 noundef %1, ptr noundef %2) #0 {
  %4 = alloca i32, align 4
  %5 = alloca i32, align 4
  %6 = alloca ptr, align 8
  %7 = alloca ptr, align 8
  %8 = alloca ptr, align 8
  store i32 %0, ptr %4, align 4
  store i32 %1, ptr %5, align 4
  store ptr %2, ptr %6, align 8
  call void @llvm.lifetime.start.p0(i64 8, ptr %7) #10
  %9 = load i32, ptr %4, align 4
  %10 = call ptr @explain_get_index_name(i32 noundef %9)
  store ptr %10, ptr %7, align 8
  %11 = load ptr, ptr %6, align 8
  %12 = getelementptr inbounds nuw %struct.ExplainState, ptr %11, i32 0, i32 12
  %13 = load i32, ptr %12, align 8
  %14 = icmp eq i32 %13, 0
  br i1 %14, label %15, label %28

15:                                               ; preds = %3
  %16 = load i32, ptr %5, align 4
  %17 = icmp eq i32 %16, -1
  br i1 %17, label %18, label %22

18:                                               ; preds = %15
  %19 = load ptr, ptr %6, align 8
  %20 = getelementptr inbounds nuw %struct.ExplainState, ptr %19, i32 0, i32 0
  %21 = load ptr, ptr %20, align 8
  call void @appendStringInfoString(ptr noundef %21, ptr noundef @.str.248)
  br label %22

22:                                               ; preds = %18, %15
  %23 = load ptr, ptr %6, align 8
  %24 = getelementptr inbounds nuw %struct.ExplainState, ptr %23, i32 0, i32 0
  %25 = load ptr, ptr %24, align 8
  %26 = load ptr, ptr %7, align 8
  %27 = call ptr @quote_identifier(ptr noundef %26)
  call void (ptr, ptr, ...) @appendStringInfo(ptr noundef %25, ptr noundef @.str.249, ptr noundef %27)
  br label %38

28:                                               ; preds = %3
  call void @llvm.lifetime.start.p0(i64 8, ptr %8) #10
  %29 = load i32, ptr %5, align 4
  switch i32 %29, label %32 [
    i32 -1, label %30
    i32 1, label %31
  ]

30:                                               ; preds = %28
  store ptr @.str.250, ptr %8, align 8
  br label %33

31:                                               ; preds = %28
  store ptr @.str.251, ptr %8, align 8
  br label %33

32:                                               ; preds = %28
  store ptr @.str.105, ptr %8, align 8
  br label %33

33:                                               ; preds = %32, %31, %30
  %34 = load ptr, ptr %8, align 8
  %35 = load ptr, ptr %6, align 8
  call void @ExplainPropertyText(ptr noundef @.str.252, ptr noundef %34, ptr noundef %35)
  %36 = load ptr, ptr %7, align 8
  %37 = load ptr, ptr %6, align 8
  call void @ExplainPropertyText(ptr noundef @.str.178, ptr noundef %36, ptr noundef %37)
  call void @llvm.lifetime.end.p0(i64 8, ptr %8) #10
  br label %38

38:                                               ; preds = %33, %22
  call void @llvm.lifetime.end.p0(i64 8, ptr %7) #10
  ret void
}