; Function Attrs: nounwind uwtable
define internal fastcc void @ExplainIndexScanDetails(i32 noundef %0, i32 noundef %1, ptr noundef readonly captures(none) %2) unnamed_addr #0 {
  %4 = load ptr, ptr @explain_get_index_name_hook, align 8
  %.not.i = icmp eq ptr %4, null
  br i1 %.not.i, label %.thread.i, label %5

5:                                                ; preds = %3
  %6 = tail call ptr %4(i32 noundef %0) #13
  %7 = icmp eq ptr %6, null
  br i1 %7, label %.thread.i, label %explain_get_index_name.exit

.thread.i:                                        ; preds = %5, %3
  %8 = tail call ptr @get_rel_name(i32 noundef %0) #13
  %9 = icmp eq ptr %8, null
  br i1 %9, label %10, label %explain_get_index_name.exit

10:                                               ; preds = %.thread.i
  %11 = tail call zeroext i1 @errstart_cold(i32 noundef 21, ptr noundef null) #15
  tail call void @llvm.assume(i1 %11)
  %12 = tail call i32 (ptr, ...) @errmsg_internal(ptr noundef nonnull @.str.253, i32 noundef %0) #13
  tail call void @errfinish(ptr noundef nonnull @.str.16, i32 noundef 4019, ptr noundef nonnull @__func__.explain_get_index_name) #13
  unreachable

explain_get_index_name.exit:                      ; preds = %5, %.thread.i
  %.1.i = phi ptr [ %8, %.thread.i ], [ %6, %5 ]
  %13 = getelementptr inbounds nuw i8, ptr %2, i64 24
  %14 = load i32, ptr %13, align 8
  %15 = icmp eq i32 %14, 0
  br i1 %15, label %16, label %23

16:                                               ; preds = %explain_get_index_name.exit
  %17 = icmp eq i32 %1, -1
  br i1 %17, label %18, label %20

18:                                               ; preds = %16
  %19 = load ptr, ptr %2, align 8
  tail call void @appendStringInfoString(ptr noundef %19, ptr noundef nonnull @.str.248) #13
  br label %20

20:                                               ; preds = %18, %16
  %21 = load ptr, ptr %2, align 8
  %22 = tail call ptr @quote_identifier(ptr noundef nonnull %.1.i) #13
  tail call void (ptr, ptr, ...) @appendStringInfo(ptr noundef %21, ptr noundef nonnull @.str.249, ptr noundef %22) #13
  br label %24

23:                                               ; preds = %explain_get_index_name.exit
  %switch.selectcmp = icmp eq i32 %1, 1
  %switch.select = select i1 %switch.selectcmp, ptr @.str.251, ptr @.str.105
  %switch.selectcmp10 = icmp eq i32 %1, -1
  %switch.select11 = select i1 %switch.selectcmp10, ptr @.str.250, ptr %switch.select
  tail call fastcc void @ExplainProperty(ptr noundef nonnull @.str.252, ptr noundef null, ptr noundef nonnull %switch.select11, i1 noundef zeroext false, ptr noundef nonnull readonly %2)
  tail call fastcc void @ExplainProperty(ptr noundef nonnull @.str.178, ptr noundef null, ptr noundef nonnull %.1.i, i1 noundef zeroext false, ptr noundef nonnull readonly %2)
  br label %24

24:                                               ; preds = %23, %20
  ret void
}